; ModuleID = '49/340.cpp'
source_filename = "49/340.cpp"
target datalayout = "e-m:e-p270:32:32-p271:32:32-p272:64:64-i64:64-f80:128-n8:16:32:64-S128"
target triple = "x86_64-pc-linux-gnu"

%"class.std::ios_base::Init" = type { i8 }
%"class.std::basic_istream" = type { i32 (...)**, i64, %"class.std::basic_ios" }
%"class.std::basic_ios" = type { %"class.std::ios_base", %"class.std::basic_ostream"*, i8, i8, %"class.std::basic_streambuf"*, %"class.std::ctype"*, %"class.std::num_put"*, %"class.std::num_get"* }
%"class.std::ios_base" = type { i32 (...)**, i64, i64, i32, i32, i32, %"struct.std::ios_base::_Callback_list"*, %"struct.std::ios_base::_Words", [8 x %"struct.std::ios_base::_Words"], i32, %"struct.std::ios_base::_Words"*, %"class.std::locale" }
%"struct.std::ios_base::_Callback_list" = type { %"struct.std::ios_base::_Callback_list"*, void (i32, %"class.std::ios_base"*, i32)*, i32, i32 }
%"struct.std::ios_base::_Words" = type { i8*, i64 }
%"class.std::locale" = type { %"class.std::locale::_Impl"* }
%"class.std::locale::_Impl" = type { i32, %"class.std::locale::facet"**, i64, %"class.std::locale::facet"**, i8** }
%"class.std::locale::facet" = type <{ i32 (...)**, i32, [4 x i8] }>
%"class.std::basic_ostream" = type { i32 (...)**, %"class.std::basic_ios" }
%"class.std::basic_streambuf" = type { i32 (...)**, i8*, i8*, i8*, i8*, i8*, i8*, %"class.std::locale" }
%"class.std::ctype" = type <{ %"class.std::locale::facet.base", [4 x i8], %struct.__locale_struct*, i8, [7 x i8], i32*, i32*, i16*, i8, [256 x i8], [256 x i8], i8, [6 x i8] }>
%"class.std::locale::facet.base" = type <{ i32 (...)**, i32 }>
%struct.__locale_struct = type { [13 x %struct.__locale_data*], i16*, i32*, i32*, [13 x i8*] }
%struct.__locale_data = type opaque
%"class.std::num_put" = type { %"class.std::locale::facet.base", [4 x i8] }
%"class.std::num_get" = type { %"class.std::locale::facet.base", [4 x i8] }

@_ZStL8__ioinit = internal global %"class.std::ios_base::Init" zeroinitializer, align 1
@__dso_handle = external hidden global i8
@_ZSt3cin = external dso_local global %"class.std::basic_istream", align 8
@_ZSt4cout = external dso_local global %"class.std::basic_ostream", align 8
@llvm.global_ctors = appending global [1 x { i32, void ()*, i8* }] [{ i32, void ()*, i8* } { i32 65535, void ()* @_GLOBAL__sub_I_340.cpp, i8* null }]

; Function Attrs: noinline uwtable
define internal void @__cxx_global_var_init() #0 section ".text.startup" {
  call void @_ZNSt8ios_base4InitC1Ev(%"class.std::ios_base::Init"* @_ZStL8__ioinit)
  %1 = call i32 @__cxa_atexit(void (i8*)* bitcast (void (%"class.std::ios_base::Init"*)* @_ZNSt8ios_base4InitD1Ev to void (i8*)*), i8* getelementptr inbounds (%"class.std::ios_base::Init", %"class.std::ios_base::Init"* @_ZStL8__ioinit, i32 0, i32 0), i8* @__dso_handle) #3
  ret void
}

declare dso_local void @_ZNSt8ios_base4InitC1Ev(%"class.std::ios_base::Init"*) unnamed_addr #1

; Function Attrs: nounwind
declare dso_local void @_ZNSt8ios_base4InitD1Ev(%"class.std::ios_base::Init"*) unnamed_addr #2

; Function Attrs: nounwind
declare dso_local i32 @__cxa_atexit(void (i8*)*, i8*, i8*) #3

; Function Attrs: noinline norecurse uwtable
define dso_local i32 @main() #4 {
  %1 = alloca i32, align 4
  %2 = alloca [100 x i8], align 16
  %3 = alloca i32, align 4
  %4 = alloca i32, align 4
  %5 = alloca i32, align 4
  %6 = alloca i32, align 4
  %7 = alloca i32, align 4
  store i32 0, i32* %1, align 4
  store i32 1, i32* %3, align 4
  store i32 0, i32* %7, align 4
  br label %8

8:                                                ; preds = %16, %0
  %9 = call i32 @_ZNSi3getEv(%"class.std::basic_istream"* @_ZSt3cin)
  %10 = trunc i32 %9 to i8
  %11 = load i32, i32* %3, align 4
  %12 = sext i32 %11 to i64
  %13 = getelementptr inbounds [100 x i8], [100 x i8]* %2, i64 0, i64 %12
  store i8 %10, i8* %13, align 1
  %14 = sext i8 %10 to i32
  %15 = icmp ne i32 %14, 10
  br i1 %15, label %16, label %19

16:                                               ; preds = %8
  %17 = load i32, i32* %3, align 4
  %18 = add nsw i32 %17, 1
  store i32 %18, i32* %3, align 4
  br label %8

19:                                               ; preds = %8
  %20 = load i32, i32* %3, align 4
  %21 = sub nsw i32 %20, 1
  store i32 %21, i32* %5, align 4
  store i32 2, i32* %4, align 4
  br label %22

22:                                               ; preds = %92, %19
  %23 = load i32, i32* %4, align 4
  %24 = load i32, i32* %5, align 4
  %25 = icmp sle i32 %23, %24
  br i1 %25, label %26, label %95

26:                                               ; preds = %22
  store i32 1, i32* %3, align 4
  br label %27

27:                                               ; preds = %88, %26
  %28 = load i32, i32* %3, align 4
  %29 = load i32, i32* %5, align 4
  %30 = load i32, i32* %4, align 4
  %31 = sub nsw i32 %29, %30
  %32 = add nsw i32 %31, 1
  %33 = icmp sle i32 %28, %32
  br i1 %33, label %34, label %91

34:                                               ; preds = %27
  store i32 0, i32* %6, align 4
  br label %35

35:                                               ; preds = %62, %34
  %36 = load i32, i32* %6, align 4
  %37 = load i32, i32* %4, align 4
  %38 = sdiv i32 %37, 2
  %39 = sub nsw i32 %38, 1
  %40 = icmp sle i32 %36, %39
  br i1 %40, label %41, label %65

41:                                               ; preds = %35
  store i32 0, i32* %7, align 4
  %42 = load i32, i32* %3, align 4
  %43 = load i32, i32* %6, align 4
  %44 = add nsw i32 %42, %43
  %45 = sext i32 %44 to i64
  %46 = getelementptr inbounds [100 x i8], [100 x i8]* %2, i64 0, i64 %45
  %47 = load i8, i8* %46, align 1
  %48 = sext i8 %47 to i32
  %49 = load i32, i32* %3, align 4
  %50 = load i32, i32* %4, align 4
  %51 = add nsw i32 %49, %50
  %52 = sub nsw i32 %51, 1
  %53 = load i32, i32* %6, align 4
  %54 = sub nsw i32 %52, %53
  %55 = sext i32 %54 to i64
  %56 = getelementptr inbounds [100 x i8], [100 x i8]* %2, i64 0, i64 %55
  %57 = load i8, i8* %56, align 1
  %58 = sext i8 %57 to i32
  %59 = icmp ne i32 %48, %58
  br i1 %59, label %60, label %61

60:                                               ; preds = %41
  store i32 1, i32* %7, align 4
  br label %65

61:                                               ; preds = %41
  br label %62

62:                                               ; preds = %61
  %63 = load i32, i32* %6, align 4
  %64 = add nsw i32 %63, 1
  store i32 %64, i32* %6, align 4
  br label %35

65:                                               ; preds = %60, %35
  %66 = load i32, i32* %7, align 4
  %67 = icmp eq i32 %66, 0
  br i1 %67, label %68, label %87

68:                                               ; preds = %65
  store i32 0, i32* %6, align 4
  br label %69

69:                                               ; preds = %82, %68
  %70 = load i32, i32* %6, align 4
  %71 = load i32, i32* %4, align 4
  %72 = sub nsw i32 %71, 1
  %73 = icmp sle i32 %70, %72
  br i1 %73, label %74, label %85

74:                                               ; preds = %69
  %75 = load i32, i32* %3, align 4
  %76 = load i32, i32* %6, align 4
  %77 = add nsw i32 %75, %76
  %78 = sext i32 %77 to i64
  %79 = getelementptr inbounds [100 x i8], [100 x i8]* %2, i64 0, i64 %78
  %80 = load i8, i8* %79, align 1
  %81 = call dereferenceable(272) %"class.std::basic_ostream"* @_ZStlsISt11char_traitsIcEERSt13basic_ostreamIcT_ES5_c(%"class.std::basic_ostream"* dereferenceable(272) @_ZSt4cout, i8 signext %80)
  br label %82

82:                                               ; preds = %74
  %83 = load i32, i32* %6, align 4
  %84 = add nsw i32 %83, 1
  store i32 %84, i32* %6, align 4
  br label %69

85:                                               ; preds = %69
  %86 = call dereferenceable(272) %"class.std::basic_ostream"* @_ZNSolsEPFRSoS_E(%"class.std::basic_ostream"* @_ZSt4cout, %"class.std::basic_ostream"* (%"class.std::basic_ostream"*)* @_ZSt4endlIcSt11char_traitsIcEERSt13basic_ostreamIT_T0_ES6_)
  br label %87

87:                                               ; preds = %85, %65
  br label %88

88:                                               ; preds = %87
  %89 = load i32, i32* %3, align 4
  %90 = add nsw i32 %89, 1
  store i32 %90, i32* %3, align 4
  br label %27

91:                                               ; preds = %27
  br label %92

92:                                               ; preds = %91
  %93 = load i32, i32* %4, align 4
  %94 = add nsw i32 %93, 1
  store i32 %94, i32* %4, align 4
  br label %22

95:                                               ; preds = %22
  ret i32 0
}

declare dso_local i32 @_ZNSi3getEv(%"class.std::basic_istream"*) #1

declare dso_local dereferenceable(272) %"class.std::basic_ostream"* @_ZStlsISt11char_traitsIcEERSt13basic_ostreamIcT_ES5_c(%"class.std::basic_ostream"* dereferenceable(272), i8 signext) #1

declare dso_local dereferenceable(272) %"class.std::basic_ostream"* @_ZNSolsEPFRSoS_E(%"class.std::basic_ostream"*, %"class.std::basic_ostream"* (%"class.std::basic_ostream"*)*) #1

declare dso_local dereferenceable(272) %"class.std::basic_ostream"* @_ZSt4endlIcSt11char_traitsIcEERSt13basic_ostreamIT_T0_ES6_(%"class.std::basic_ostream"* dereferenceable(272)) #1

; Function Attrs: noinline uwtable
define internal void @_GLOBAL__sub_I_340.cpp() #0 section ".text.startup" {
  call void @__cxx_global_var_init()
  ret void
}


!llvm.module.flags = !{!0}
!llvm.ident = !{!1}

!0 = !{i32 1, !"wchar_size", i32 4}
!1 = !{!"clang version 10.0.0-4ubuntu1 "}
